target datalayout = "e-m:e-p270:32:32-p271:32:32-p272:64:64-i64:64-i128:128-f80:128-n8:16:32:64-S128"
target triple = "x86_64-pc-linux-gnu"

%struct.redisServer = type { i32, i64, ptr, ptr, ptr, i32, i32, i32, i32, i32, ptr, ptr, ptr, ptr, ptr, i32, i32, i32, i32, i64, i32, i32, i32, i32, ptr, i32, i32, [41 x i8], i32, i64, i32, i32, i32, ptr, ptr, i32, i32, i64, ptr, ptr, ptr, ptr, [2 x i32], i32, i32, i32, i32, i32, i32, [16 x ptr], i32, ptr, ptr, i32, [8 x %struct.connListener], i32, %struct.connListener, ptr, ptr, ptr, ptr, ptr, ptr, ptr, ptr, ptr, ptr, i32, ptr, i32, ptr, [3 x %struct.pause_event], [256 x i8], ptr, i64, i32, i32, [128 x i32], i32, i32, i64, i32, i32, i32, i32, i32, i64, i64, i64, i64, i64, i64, i64, i64, i64, i64, double, i64, i64, i64, i64, i64, i64, i64, i64, i64, i64, i64, i64, i64, i64, i64, i64, i64, i64, i64, i64, i64, double, i64, i64, i64, i64, i64, ptr, i64, i64, i64, %struct.malloc_stats, i64, i64, i64, i64, i64, i64, i64, i64, i64, i64, i64, i64, double, [4 x i64], i64, i64, i64, i64, [128 x i64], [128 x i64], i64, i64, [7 x %struct.anon], i64, i64, i64, i64, i64, i64, [4 x %struct.durationStats], i32, i32, i32, i32, i32, i32, i32, i32, i32, i32, i32, i32, i64, i32, i32, i32, i32, i64, i64, i32, i32, i32, i32, i32, ptr, [3 x %struct.clientBufferLimitsConfig], i32, i32, i32, ptr, i32, i32, i32, i32, i32, i32, ptr, ptr, i32, i32, i64, i64, i64, i64, i64, i32, i32, ptr, i32, i32, i64, i64, i64, i64, i64, i32, i32, i64, i32, i32, i32, i32, i32, i32, i32, i32, ptr, i32, i64, i64, i64, i64, i32, ptr, i32, ptr, i32, i32, i32, i64, i64, i64, i64, i32, i32, i32, i32, i32, i32, ptr, i32, i32, ptr, i32, i32, i32, [2 x i32], i32, %struct.redisOpArray, i32, ptr, i32, ptr, i32, i32, i32, i32, i32, i32, i32, [41 x i8], [41 x i8], i64, i64, i64, i64, i32, i32, ptr, i64, i64, %struct.replDataBuf, i64, i64, i32, i32, i32, i32, i32, i32, i32, i32, i32, i64, ptr, i64, ptr, ptr, ptr, i32, i32, ptr, ptr, i32, i32, i32, i64, i64, i64, i64, ptr, ptr, i32, ptr, i64, i32, i32, i32, i64, i32, i32, i32, i32, ptr, i32, i32, [41 x i8], i64, i32, ptr, i32, i32, i64, i64, i32, i32, i32, i32, i32, i64, [3 x i32], i32, i32, i32, [10 x i32], ptr, ptr, i32, i64, ptr, ptr, i32, i32, i32, i32, i64, i64, i64, i64, i64, i64, i64, i64, i64, i64, i32, i32, i64, i64, i32, i64, i64, i64, i64, i64, ptr, ptr, i32, ptr, i32, i32, i32, i32, i64, i64, ptr, ptr, i32, i32, i32, i32, i32, ptr, ptr, ptr, i32, i32, i32, i32, i32, i32, i32, i64, i32, i32, i64, i32, i32, i32, i32, i32, i32, i32, i64, ptr, ptr, i64, ptr, i32, %struct.aclInfo, i32, i64, i32, i32, i32, %struct.redisTLSContextConfig, ptr, ptr, ptr, ptr, ptr, i64, i32, ptr, i32, i32, i32, i64, i32, ptr }
%struct.connListener = type { [16 x i32], i32, ptr, i32, i32, ptr, ptr }
%struct.pause_event = type { i32, i64 }
%struct.malloc_stats = type { i64, i64, i64, i64, i64, i64, i64, i64, i64, i64, i64 }
%struct.anon = type { i64, i64, [16 x i64], i32 }
%struct.durationStats = type { i64, i64, i64 }
%struct.clientBufferLimitsConfig = type { i64, i64, i64 }
%struct.redisOpArray = type { ptr, i32, i32 }
%struct.replDataBuf = type { ptr, i64, i64, i64, i64 }
%struct.aclInfo = type { i64, i64, i64, i64 }
%struct.redisTLSContextConfig = type { ptr, ptr, ptr, ptr, ptr, ptr, ptr, ptr, ptr, ptr, ptr, ptr, i32, i32, i32, i32 }
%struct.sharedObjectsStruct = type { ptr, ptr, ptr, ptr, ptr, ptr, ptr, ptr, [4 x ptr], [4 x ptr], [4 x ptr], [4 x ptr], ptr, ptr, ptr, ptr, ptr, ptr, ptr, ptr, ptr, ptr, ptr, ptr, ptr, ptr, ptr, ptr, ptr, ptr, ptr, ptr, ptr, ptr, ptr, ptr, ptr, ptr, ptr, ptr, ptr, ptr, ptr, ptr, ptr, ptr, ptr, ptr, ptr, ptr, ptr, ptr, ptr, ptr, ptr, ptr, ptr, ptr, ptr, ptr, ptr, ptr, ptr, ptr, ptr, ptr, ptr, ptr, ptr, ptr, ptr, ptr, ptr, ptr, ptr, ptr, ptr, ptr, ptr, ptr, ptr, ptr, ptr, ptr, ptr, ptr, ptr, ptr, [10 x ptr], [10000 x ptr], [32 x ptr], [32 x ptr], [32 x ptr], [32 x ptr], ptr, ptr }
%struct.client = type { i64, i64, ptr, i8, i8, i8, i8, i32, ptr, ptr, ptr, ptr, ptr, i64, i64, i32, ptr, i32, i32, ptr, i64, ptr, ptr, ptr, ptr, ptr, i32, i32, i64, ptr, i64, ptr, i64, i64, i64, i32, ptr, i64, i64, i32, i32, i32, i32, i64, i64, ptr, i64, i64, i64, i64, i64, i64, i64, i64, [41 x i8], i32, ptr, i32, i32, i64, %struct.multiState, %struct.blockingState, i64, ptr, ptr, ptr, ptr, ptr, ptr, ptr, ptr, ptr, ptr, ptr, ptr, ptr, ptr, i64, ptr, i64, i32, ptr, ptr, ptr, i64, %struct.listNode, i64, i64, i32, i64, ptr }
%struct.multiState = type { ptr, i32, i32, i32, i64, i32 }
%struct.blockingState = type { i32, i64, i32, ptr, i32, i32, i64, ptr, ptr, i64 }
%struct.listNode = type { ptr, ptr, ptr }
%struct.listIter = type { ptr, i32 }

@server = external global %struct.redisServer, align 8
@shared = external global %struct.sharedObjectsStruct, align 8
@.str.7 = private unnamed_addr constant [94 x i8] c"-UNBLOCKED force unblock from blocking operation, instance state changed (master -> replica?)\00", align 1

; Function Attrs: nounwind uwtable
define dso_local void @disconnectAllBlockedClients() #0 {
  %1 = alloca ptr, align 8
  %2 = alloca %struct.listIter, align 8
  %3 = alloca ptr, align 8
  %4 = alloca i32, align 4
  call void @llvm.lifetime.start.p0(i64 8, ptr %1) #8
  call void @llvm.lifetime.start.p0(i64 16, ptr %2) #8
  %5 = load ptr, ptr getelementptr inbounds nuw (%struct.redisServer, ptr @server, i32 0, i32 57), align 8, !tbaa !90
  call void @listRewind(ptr noundef %5, ptr noundef %2)
  br label %6

6:                                                ; preds = %49, %47, %0
  %7 = call ptr @listNext(ptr noundef %2)
  store ptr %7, ptr %1, align 8, !tbaa !77
  %8 = icmp ne ptr %7, null
  br i1 %8, label %9, label %50

9:                                                ; preds = %6
  call void @llvm.lifetime.start.p0(i64 8, ptr %3) #8
  %10 = load ptr, ptr %1, align 8, !tbaa !77
  %11 = getelementptr inbounds nuw %struct.listNode, ptr %10, i32 0, i32 2
  %12 = load ptr, ptr %11, align 8, !tbaa !78
  store ptr %12, ptr %3, align 8, !tbaa !5
  %13 = load ptr, ptr %3, align 8, !tbaa !5
  %14 = getelementptr inbounds nuw %struct.client, ptr %13, i32 0, i32 1
  %15 = load i64, ptr %14, align 8, !tbaa !37
  %16 = and i64 %15, 16
  %17 = icmp ne i64 %16, 0
  br i1 %17, label %18, label %46

18:                                               ; preds = %9
  %19 = load ptr, ptr %3, align 8, !tbaa !5
  %20 = getelementptr inbounds nuw %struct.client, ptr %19, i32 0, i32 61
  %21 = getelementptr inbounds nuw %struct.blockingState, ptr %20, i32 0, i32 0
  %22 = load i32, ptr %21, align 8, !tbaa !10
  %23 = icmp eq i32 %22, 7
  br i1 %23, label %24, label %25

24:                                               ; preds = %18
  store i32 2, ptr %4, align 4
  br label %47, !llvm.loop !92

25:                                               ; preds = %18
  %26 = load ptr, ptr %3, align 8, !tbaa !5
  %27 = getelementptr inbounds nuw %struct.client, ptr %26, i32 0, i32 61
  %28 = getelementptr inbounds nuw %struct.blockingState, ptr %27, i32 0, i32 0
  %29 = load i32, ptr %28, align 8, !tbaa !10
  %30 = icmp eq i32 %29, 9
  br i1 %30, label %31, label %39

31:                                               ; preds = %25
  %32 = load ptr, ptr %3, align 8, !tbaa !5
  %33 = load ptr, ptr @shared, align 8, !tbaa !87
  call void @addReply(ptr noundef %32, ptr noundef %33)
  %34 = load ptr, ptr %3, align 8, !tbaa !5
  %35 = getelementptr inbounds nuw %struct.client, ptr %34, i32 0, i32 1
  %36 = load i64, ptr %35, align 8, !tbaa !37
  %37 = and i64 %36, -1073741825
  store i64 %37, ptr %35, align 8, !tbaa !37
  %38 = load ptr, ptr %3, align 8, !tbaa !5
  call void @unblockClient(ptr noundef %38, i32 noundef 1)
  br label %41

39:                                               ; preds = %25
  %40 = load ptr, ptr %3, align 8, !tbaa !5
  call void @unblockClientOnError(ptr noundef %40, ptr noundef @.str.7)
  br label %41

41:                                               ; preds = %39, %31
  %42 = load ptr, ptr %3, align 8, !tbaa !5
  %43 = getelementptr inbounds nuw %struct.client, ptr %42, i32 0, i32 1
  %44 = load i64, ptr %43, align 8, !tbaa !37
  %45 = or i64 %44, 64
  store i64 %45, ptr %43, align 8, !tbaa !37
  br label %46

46:                                               ; preds = %41, %9
  store i32 0, ptr %4, align 4
  br label %47

47:                                               ; preds = %46, %24
  call void @llvm.lifetime.end.p0(i64 8, ptr %3) #8
  %48 = load i32, ptr %4, align 4
  switch i32 %48, label %51 [
    i32 0, label %49
    i32 2, label %6
  ]

49:                                               ; preds = %47
  br label %6, !llvm.loop !92

50:                                               ; preds = %6
  call void @llvm.lifetime.end.p0(i64 16, ptr %2) #8
  call void @llvm.lifetime.end.p0(i64 8, ptr %1) #8
  ret void

51:                                               ; preds = %47
  unreachable
}