; Function Attrs: nounwind uwtable
define dso_local void @disconnectAllBlockedClients() local_unnamed_addr #0 {
  %1 = alloca %struct.listIter, align 8
  call void @llvm.lifetime.start.p0(i64 16, ptr nonnull %1) #5
  %2 = load ptr, ptr getelementptr inbounds nuw (i8, ptr @server, i64 1432), align 8, !tbaa !85
  call void @listRewind(ptr noundef %2, ptr noundef nonnull %1) #5
  %3 = call ptr @listNext(ptr noundef nonnull %1) #5
  %.not11 = icmp eq ptr %3, null
  br i1 %.not11, label %._crit_edge, label %.lr.ph

.lr.ph:                                           ; preds = %0, %21
  %4 = phi ptr [ %22, %21 ], [ %3, %0 ]
  %5 = getelementptr inbounds nuw i8, ptr %4, i64 16
  %6 = load ptr, ptr %5, align 8, !tbaa !75
  %7 = getelementptr inbounds nuw i8, ptr %6, i64 8
  %8 = load i64, ptr %7, align 8, !tbaa !34
  %9 = and i64 %8, 16
  %.not10 = icmp eq i64 %9, 0
  br i1 %.not10, label %21, label %10

10:                                               ; preds = %.lr.ph
  %11 = getelementptr inbounds nuw i8, ptr %6, i64 480
  %12 = load i32, ptr %11, align 8, !tbaa !5
  switch i32 %12, label %17 [
    i32 7, label %21
    i32 9, label %13
  ]

13:                                               ; preds = %10
  %14 = load ptr, ptr @shared, align 8, !tbaa !82
  call void @addReply(ptr noundef nonnull %6, ptr noundef %14) #5
  %15 = load i64, ptr %7, align 8, !tbaa !34
  %16 = and i64 %15, -1073741825
  store i64 %16, ptr %7, align 8, !tbaa !34
  call void @unblockClient(ptr noundef nonnull %6, i32 noundef 1)
  br label %18

17:                                               ; preds = %10
  call void @unblockClientOnError(ptr noundef nonnull %6, ptr noundef nonnull @.str.7)
  br label %18

18:                                               ; preds = %17, %13
  %19 = load i64, ptr %7, align 8, !tbaa !34
  %20 = or i64 %19, 64
  store i64 %20, ptr %7, align 8, !tbaa !34
  br label %21

21:                                               ; preds = %.lr.ph, %18, %10
  %22 = call ptr @listNext(ptr noundef nonnull %1) #5
  %.not = icmp eq ptr %22, null
  br i1 %.not, label %._crit_edge, label %.lr.ph

._crit_edge:                                      ; preds = %21, %0
  call void @llvm.lifetime.end.p0(i64 16, ptr nonnull %1) #5
  ret void
}